(lp0
(dp1
Vdomain
p2
V.qzone.qq.com
p3
sVname
p4
VLoading
p5
sVexpires
p6
V\u5468\u4e8c, 15 8\u6708 2017 16:00:00 GMT
p7
sVvalue
p8
VYes
p9
sVexpiry
p10
I1502812800
sVpath
p11
V/
p12
sVhttponly
p13
I00
sVsecure
p14
I00
sa(dp15
Vdomain
p16
V.qzone.qq.com
p17
sVname
p18
Vfnc
p19
sVexpires
p20
V\u5468\u4e8c, 15 8\u6708 2017 08:51:19 GMT
p21
sVvalue
p22
V2
p23
sVexpiry
p24
I1502787079
sVpath
p25
g12
sVhttponly
p26
I00
sVsecure
p27
I00
sa(dp28
Vdomain
p29
V.qzone.qq.com
p30
sVname
p31
Vpt4_token
p32
sVvalue
p33
VGSo*Yd*oPwOe8oLlk5J6HlL5ofWk0FEZ-S0vMvsUoas_
p34
sVpath
p35
g12
sVhttponly
p36
I00
sVsecure
p37
I00
sa(dp38
Vdomain
p39
V.qzone.qq.com
p40
sVname
p41
Vp_skey
p42
sVvalue
p43
V5hIzfp0wipjW6ZaDaI2cFRtl81xhVwpDtbgRh1xJxiM_
p44
sVpath
p45
g12
sVhttponly
p46
I00
sVsecure
p47
I01
sa(dp48
Vdomain
p49
V.qzone.qq.com
p50
sVname
p51
Vp_uin
p52
sVvalue
p53
Vo0191155395
p54
sVpath
p55
g12
sVhttponly
p56
I00
sVsecure
p57
I00
sa(dp58
Vdomain
p59
V.qq.com
p60
sVname
p61
Vskey
p62
sVvalue
p63
V@Xssbjelec
p64
sVpath
p65
g12
sVhttponly
p66
I00
sVsecure
p67
I00
sa(dp68
Vdomain
p69
V.qq.com
p70
sVname
p71
Vuin
p72
sVvalue
p73
Vo0191155395
p74
sVpath
p75
g12
sVhttponly
p76
I00
sVsecure
p77
I00
sa(dp78
Vdomain
p79
V.qq.com
p80
sVname
p81
Vpt2gguin
p82
sVexpires
p83
V\u5468\u56db, 02 1\u6708 2020 00:00:00 GMT
p84
sVvalue
p85
Vo0191155395
p86
sVexpiry
p87
I1577923200
sVpath
p88
g12
sVhttponly
p89
I00
sVsecure
p90
I00
sa(dp91
Vdomain
p92
V.qq.com
p93
sVname
p94
Vptcz
p95
sVexpires
p96
V\u5468\u56db, 02 1\u6708 2020 00:00:00 GMT
p97
sVvalue
p98
Vef4d820d09cd87201482f4ffdd9d1c58ae14f0c0e157c537c7beef05af863cbe
p99
sVexpiry
p100
I1577923200
sVpath
p101
g12
sVhttponly
p102
I00
sVsecure
p103
I00
sa(dp104
Vdomain
p105
V.qq.com
p106
sVname
p107
VRK
p108
sVexpires
p109
V\u5468\u4e94, 13 8\u6708 2027 08:46:19 GMT
p110
sVvalue
p111
V0O0eyzUvSW
p112
sVexpiry
p113
I1818146779
sVpath
p114
g12
sVhttponly
p115
I00
sVsecure
p116
I00
sa(dp117
Vdomain
p118
V.qq.com
p119
sVname
p120
Vptisp
p121
sVvalue
p122
Vctc
p123
sVpath
p124
g12
sVhttponly
p125
I00
sVsecure
p126
I00
sa(dp127
Vdomain
p128
V.qq.com
p129
sVname
p130
Vpgv_info
p131
sVvalue
p132
Vssid=s2013869672
p133
sVpath
p134
g12
sVhttponly
p135
I00
sVsecure
p136
I00
sa(dp137
Vdomain
p138
V.qq.com
p139
sVname
p140
Vpgv_pvid
p141
sVexpires
p142
V\u5468\u4e00, 18 1\u6708 2038 00:00:00 GMT
p143
sVvalue
p144
V8128500123
p145
sVexpiry
p146
I2147385600
sVpath
p147
g12
sVhttponly
p148
I00
sVsecure
p149
I00
sa(dp150
Vdomain
p151
V.qq.com
p152
sVname
p153
Vptui_loginuin
p154
sVexpires
p155
V\u5468\u56db, 14 9\u6708 2017 08:46:18 GMT
p156
sVvalue
p157
V191155395
p158
sVexpiry
p159
I1505378778
sVpath
p160
g12
sVhttponly
p161
I00
sVsecure
p162
I00
sa(dp163
Vdomain
p164
V.qq.com
p165
sVname
p166
Vpgv_si
p167
sVvalue
p168
Vs6395555840
p169
sVpath
p170
g12
sVhttponly
p171
I00
sVsecure
p172
I00
sa(dp173
Vdomain
p174
V.qq.com
p175
sVname
p176
Vpgv_pvi
p177
sVexpires
p178
V\u5468\u4e00, 18 1\u6708 2038 00:00:00 GMT
p179
sVvalue
p180
V887527424
p181
sVexpiry
p182
I2147385600
sVpath
p183
g12
sVhttponly
p184
I00
sVsecure
p185
I00
sa(dp186
Vdomain
p187
V.qq.com
p188
sVname
p189
V_qpsvr_localtk
p190
sVvalue
p191
V0.017304944340139627
p192
sVpath
p193
g12
sVhttponly
p194
I00
sVsecure
p195
I00
sa.